; Function Attrs: mustprogress uwtable
define noundef zeroext i1 @_ZN3re26Regexp10ParseState16ParseCCCharacterEPN4absl7debian211string_viewEPiS4_PNS_12RegexpStatusE(ptr nocapture noundef nonnull readonly align 8 dereferenceable(48) %this, ptr nocapture noundef %s, ptr noundef %rp, ptr %whole_class.coerce0, i64 %whole_class.coerce1, ptr noundef %status) local_unnamed_addr #8 align 2 {
entry:
  %length_.i = getelementptr inbounds i8, ptr %s, i64 8
  %0 = load i64, ptr %length_.i, align 8
  %cmp.i = icmp eq i64 %0, 0
  br i1 %cmp.i, label %if.then, label %_ZNK4absl7debian211string_viewixEm.exit

if.then:                                          ; preds = %entry
  store i32 5, ptr %status, align 8
  %error_arg_.i = getelementptr inbounds i8, ptr %status, i64 8
  store ptr %whole_class.coerce0, ptr %error_arg_.i, align 8
  %error_arg.sroa.2.0.error_arg_.sroa_idx.i = getelementptr inbounds i8, ptr %status, i64 16
  store i64 %whole_class.coerce1, ptr %error_arg.sroa.2.0.error_arg_.sroa_idx.i, align 8
  br label %return

_ZNK4absl7debian211string_viewixEm.exit:          ; preds = %entry
  %1 = load ptr, ptr %s, align 8
  %2 = load i8, ptr %1, align 1
  %cmp = icmp eq i8 %2, 92
  br i1 %cmp, label %if.then3, label %if.end5

if.then3:                                         ; preds = %_ZNK4absl7debian211string_viewixEm.exit
  %rune_max_ = getelementptr inbounds i8, ptr %this, i64 44
  %3 = load i32, ptr %rune_max_, align 4
  %call4 = tail call fastcc noundef zeroext i1 @_ZN3re2L11ParseEscapeEPN4absl7debian211string_viewEPiPNS_12RegexpStatusEi(ptr noundef nonnull %s, ptr noundef %rp, ptr noundef %status, i32 noundef %3)
  br label %return

if.end5:                                          ; preds = %_ZNK4absl7debian211string_viewixEm.exit
  %.sroa.speculated.i = tail call i64 @llvm.umin.i64(i64 %0, i64 4)
  %conv.i = trunc i64 %.sroa.speculated.i to i32
  %call4.i = tail call noundef i32 @_ZN3re28fullruneEPKci(ptr noundef nonnull %1, i32 noundef %conv.i)
  %tobool.not.i = icmp eq i32 %call4.i, 0
  br i1 %tobool.not.i, label %if.end13.i, label %if.then.i

if.then.i:                                        ; preds = %if.end5
  %4 = load ptr, ptr %s, align 8
  %call6.i = tail call noundef i32 @_ZN3re210chartoruneEPiPKc(ptr noundef %rp, ptr noundef %4)
  %5 = load i32, ptr %rp, align 4
  %cmp.i10 = icmp sgt i32 %5, 1114111
  br i1 %cmp.i10, label %land.lhs.true.thread.i, label %if.end.i

land.lhs.true.thread.i:                           ; preds = %if.then.i
  store i32 65533, ptr %rp, align 4
  br label %if.end13.i

if.end.i:                                         ; preds = %if.then.i
  %cmp8.i = icmp eq i32 %call6.i, 1
  %cmp9.i = icmp eq i32 %5, 65533
  %or.cond.i = and i1 %cmp8.i, %cmp9.i
  br i1 %or.cond.i, label %if.end13.i, label %if.then10.i

if.then10.i:                                      ; preds = %if.end.i
  %conv11.i = sext i32 %call6.i to i64
  %6 = load i64, ptr %length_.i, align 8
  %cmp.not.i.i = icmp ult i64 %6, %conv11.i
  br i1 %cmp.not.i.i, label %cond.false.i.i, label %_ZN4absl7debian211string_view13remove_prefixEm.exit.i

cond.false.i.i:                                   ; preds = %if.then10.i
  tail call void @llvm.trap()
  unreachable

_ZN4absl7debian211string_view13remove_prefixEm.exit.i: ; preds = %if.then10.i
  %7 = load ptr, ptr %s, align 8
  %add.ptr.i.i = getelementptr inbounds i8, ptr %7, i64 %conv11.i
  store ptr %add.ptr.i.i, ptr %s, align 8
  %sub.i.i = sub i64 %6, %conv11.i
  store i64 %sub.i.i, ptr %length_.i, align 8
  %8 = icmp sgt i32 %call6.i, -1
  br label %return

if.end13.i:                                       ; preds = %if.end.i, %land.lhs.true.thread.i, %if.end5
  %cmp14.not.i = icmp eq ptr %status, null
  br i1 %cmp14.not.i, label %return, label %if.then15.i

if.then15.i:                                      ; preds = %if.end13.i
  store i32 13, ptr %status, align 8
  %error_arg_.i.i = getelementptr inbounds i8, ptr %status, i64 8
  tail call void @llvm.memset.p0.i64(ptr noundef nonnull align 8 dereferenceable(16) %error_arg_.i.i, i8 0, i64 16, i1 false)
  br label %return

return:                                           ; preds = %if.then15.i, %if.end13.i, %_ZN4absl7debian211string_view13remove_prefixEm.exit.i, %if.then3, %if.then
  %retval.0 = phi i1 [ false, %if.then ], [ %call4, %if.then3 ], [ %8, %_ZN4absl7debian211string_view13remove_prefixEm.exit.i ], [ false, %if.then15.i ], [ false, %if.end13.i ]
  ret i1 %retval.0
}